target datalayout = "e-m:e-p270:32:32-p271:32:32-p272:64:64-i64:64-i128:128-f80:128-n8:16:32:64-S128"
target triple = "x86_64-pc-linux-gnu"

%class.QColor = type <{ i32, %"union.QColor::CT", [2 x i8] }>
%"union.QColor::CT" = type { %struct.anon }
%struct.anon = type { i16, i16, i16, i16, i16 }
%class.ColorValue = type { %class.Value, %class.QColor }
%class.Value = type { ptr }

; Function Attrs: mustprogress nounwind uwtable
define linkonce_odr void @_ZN5ValueD2Ev(ptr noundef nonnull align 8 dereferenceable(8) %0) unnamed_addr #0 comdat align 2 {
  %2 = alloca ptr, align 8
  store ptr %0, ptr %2, align 8
  ret void
}

; Function Attrs: mustprogress nounwind uwtable
define linkonce_odr void @_ZN10ColorValueD2Ev(ptr noundef nonnull align 8 dereferenceable(24) %0) unnamed_addr #0 comdat align 2 {
  %2 = alloca ptr, align 8
  store ptr %0, ptr %2, align 8
  %3 = load ptr, ptr %2, align 8
  call void @_ZN5ValueD2Ev(ptr noundef nonnull align 8 dereferenceable(8) %3) #5
  ret void
}

; Function Attrs: mustprogress nounwind uwtable
define linkonce_odr void @_ZN6QColorC2ERKS_(ptr noundef nonnull align 4 dereferenceable(14) %0, ptr noundef nonnull align 4 dereferenceable(14) %1) unnamed_addr #0 comdat align 2 {
  %3 = alloca ptr, align 8
  %4 = alloca ptr, align 8
  store ptr %0, ptr %3, align 8
  store ptr %1, ptr %4, align 8
  %5 = load ptr, ptr %3, align 8
  %6 = getelementptr inbounds %class.QColor, ptr %5, i32 0, i32 0
  %7 = load ptr, ptr %4, align 8
  %8 = getelementptr inbounds %class.QColor, ptr %7, i32 0, i32 0
  %9 = load i32, ptr %8, align 4
  store i32 %9, ptr %6, align 4
  %10 = getelementptr inbounds %class.QColor, ptr %5, i32 0, i32 1
  %11 = load ptr, ptr %4, align 8
  %12 = getelementptr inbounds %class.QColor, ptr %11, i32 0, i32 1
  call void @llvm.memcpy.p0.p0.i64(ptr align 4 %10, ptr align 4 %12, i64 10, i1 false)
  ret void
}

; Function Attrs: mustprogress uwtable
define void @_ZN9RichColorC2ERK7QStringRK6QColorS2_S2_bS2_(ptr noundef nonnull align 8 dereferenceable(56) %0, ptr noundef nonnull align 8 dereferenceable(8) %1, ptr noundef nonnull align 4 dereferenceable(14) %2, ptr noundef nonnull align 8 dereferenceable(8) %3, ptr noundef nonnull align 8 dereferenceable(8) %4, i1 noundef zeroext %5, ptr noundef nonnull align 8 dereferenceable(8) %6) unnamed_addr #2 align 2 personality ptr @__gxx_personality_v0 {
  %8 = alloca ptr, align 8
  %9 = alloca ptr, align 8
  %10 = alloca ptr, align 8
  %11 = alloca ptr, align 8
  %12 = alloca ptr, align 8
  %13 = alloca i8, align 1
  %14 = alloca ptr, align 8
  %15 = alloca %class.ColorValue, align 8
  %16 = alloca %class.QColor, align 4
  %17 = alloca ptr, align 8
  %18 = alloca i32, align 4
  store ptr %0, ptr %8, align 8
  store ptr %1, ptr %9, align 8
  store ptr %2, ptr %10, align 8
  store ptr %3, ptr %11, align 8
  store ptr %4, ptr %12, align 8
  %19 = zext i1 %5 to i8
  store i8 %19, ptr %13, align 1
  store ptr %6, ptr %14, align 8
  %20 = load ptr, ptr %8, align 8
  %21 = load ptr, ptr %9, align 8
  %22 = load ptr, ptr %10, align 8
  call void @_ZN6QColorC2ERKS_(ptr noundef nonnull align 4 dereferenceable(14) %16, ptr noundef nonnull align 4 dereferenceable(14) %22) #5
  call void @_ZN10ColorValueC1E6QColor(ptr noundef nonnull align 8 dereferenceable(24) %15, ptr noundef %16)
  %23 = load ptr, ptr %11, align 8
  %24 = load ptr, ptr %12, align 8
  %25 = load i8, ptr %13, align 1
  %26 = trunc i8 %25 to i1
  %27 = load ptr, ptr %14, align 8
  invoke void @_ZN13RichParameterC2ERK7QStringRK5ValueS2_S2_bS2_(ptr noundef nonnull align 8 dereferenceable(56) %20, ptr noundef nonnull align 8 dereferenceable(8) %21, ptr noundef nonnull align 8 dereferenceable(8) %15, ptr noundef nonnull align 8 dereferenceable(8) %23, ptr noundef nonnull align 8 dereferenceable(8) %24, i1 noundef zeroext %26, ptr noundef nonnull align 8 dereferenceable(8) %27)
          to label %28 unwind label %29

28:                                               ; preds = %7
  call void @_ZN10ColorValueD2Ev(ptr noundef nonnull align 8 dereferenceable(24) %15) #5
  store ptr getelementptr inbounds ({ [8 x ptr] }, ptr @_ZTV9RichColor, i32 0, i32 0, i32 2), ptr %20, align 8
  ret void

29:                                               ; preds = %7
  %30 = landingpad { ptr, i32 }
          cleanup
  %31 = extractvalue { ptr, i32 } %30, 0
  store ptr %31, ptr %17, align 8
  %32 = extractvalue { ptr, i32 } %30, 1
  store i32 %32, ptr %18, align 4
  call void @_ZN10ColorValueD2Ev(ptr noundef nonnull align 8 dereferenceable(24) %15) #5
  br label %33

33:                                               ; preds = %29
  %34 = load ptr, ptr %17, align 8
  %35 = load i32, ptr %18, align 4
  %36 = insertvalue { ptr, i32 } poison, ptr %34, 0
  %37 = insertvalue { ptr, i32 } %36, i32 %35, 1
  resume { ptr, i32 } %37
}