; Function Attrs: mustprogress uwtable
define void @_ZN9RichColorC2ERK7QStringRK6QColorS2_S2_bS2_(ptr noundef nonnull align 8 dereferenceable(56) %0, ptr noundef nonnull align 8 dereferenceable(8) %1, ptr nocapture noundef nonnull readonly align 4 dereferenceable(14) %2, ptr noundef nonnull align 8 dereferenceable(8) %3, ptr noundef nonnull align 8 dereferenceable(8) %4, i1 noundef zeroext %5, ptr noundef nonnull align 8 dereferenceable(8) %6) unnamed_addr #2 align 2 personality ptr @__gxx_personality_v0 {
  %8 = alloca %class.ColorValue, align 8
  %9 = alloca %class.QColor, align 4
  %10 = load i32, ptr %2, align 4
  store i32 %10, ptr %9, align 4
  %11 = getelementptr inbounds i8, ptr %9, i64 4
  %12 = getelementptr inbounds i8, ptr %2, i64 4
  call void @llvm.memcpy.p0.p0.i64(ptr noundef nonnull align 4 dereferenceable(10) %11, ptr noundef nonnull align 4 dereferenceable(10) %12, i64 10, i1 false)
  call void @_ZN10ColorValueC1E6QColor(ptr noundef nonnull align 8 dereferenceable(24) %8, ptr noundef nonnull %9)
  call void @_ZN13RichParameterC2ERK7QStringRK5ValueS2_S2_bS2_(ptr noundef nonnull align 8 dereferenceable(56) %0, ptr noundef nonnull align 8 dereferenceable(8) %1, ptr noundef nonnull align 8 dereferenceable(8) %8, ptr noundef nonnull align 8 dereferenceable(8) %3, ptr noundef nonnull align 8 dereferenceable(8) %4, i1 noundef zeroext %5, ptr noundef nonnull align 8 dereferenceable(8) %6)
  store ptr getelementptr inbounds ({ [8 x ptr] }, ptr @_ZTV9RichColor, i64 0, i32 0, i64 2), ptr %0, align 8
  ret void
}